target datalayout = "e-m:e-p270:32:32-p271:32:32-p272:64:64-i64:64-i128:128-f80:128-n8:16:32:64-S128"
target triple = "x86_64-pc-linux-gnu"

%struct.OSQPVectorf_ = type { ptr, i64 }

; Function Attrs: nounwind uwtable
define void @OSQPVectorf_ew_bound_vec(ptr noundef %0, ptr noundef %1, ptr noundef %2, ptr noundef %3) #0 {
  %5 = alloca ptr, align 8
  %6 = alloca ptr, align 8
  %7 = alloca ptr, align 8
  %8 = alloca ptr, align 8
  %9 = alloca i64, align 8
  %10 = alloca i64, align 8
  %11 = alloca ptr, align 8
  %12 = alloca ptr, align 8
  %13 = alloca ptr, align 8
  %14 = alloca ptr, align 8
  store ptr %0, ptr %5, align 8
  store ptr %1, ptr %6, align 8
  store ptr %2, ptr %7, align 8
  store ptr %3, ptr %8, align 8
  %15 = load ptr, ptr %5, align 8
  %16 = getelementptr inbounds %struct.OSQPVectorf_, ptr %15, i32 0, i32 1
  %17 = load i64, ptr %16, align 8
  store i64 %17, ptr %10, align 8
  %18 = load ptr, ptr %5, align 8
  %19 = getelementptr inbounds %struct.OSQPVectorf_, ptr %18, i32 0, i32 0
  %20 = load ptr, ptr %19, align 8
  store ptr %20, ptr %11, align 8
  %21 = load ptr, ptr %6, align 8
  %22 = getelementptr inbounds %struct.OSQPVectorf_, ptr %21, i32 0, i32 0
  %23 = load ptr, ptr %22, align 8
  store ptr %23, ptr %12, align 8
  %24 = load ptr, ptr %7, align 8
  %25 = getelementptr inbounds %struct.OSQPVectorf_, ptr %24, i32 0, i32 0
  %26 = load ptr, ptr %25, align 8
  store ptr %26, ptr %13, align 8
  %27 = load ptr, ptr %8, align 8
  %28 = getelementptr inbounds %struct.OSQPVectorf_, ptr %27, i32 0, i32 0
  %29 = load ptr, ptr %28, align 8
  store ptr %29, ptr %14, align 8
  store i64 0, ptr %9, align 8
  br label %30

30:                                               ; preds = %93, %4
  %31 = load i64, ptr %9, align 8
  %32 = load i64, ptr %10, align 8
  %33 = icmp slt i64 %31, %32
  br i1 %33, label %34, label %96

34:                                               ; preds = %30
  %35 = load ptr, ptr %12, align 8
  %36 = load i64, ptr %9, align 8
  %37 = getelementptr inbounds double, ptr %35, i64 %36
  %38 = load double, ptr %37, align 8
  %39 = load ptr, ptr %13, align 8
  %40 = load i64, ptr %9, align 8
  %41 = getelementptr inbounds double, ptr %39, i64 %40
  %42 = load double, ptr %41, align 8
  %43 = fcmp ogt double %38, %42
  br i1 %43, label %44, label %49

44:                                               ; preds = %34
  %45 = load ptr, ptr %12, align 8
  %46 = load i64, ptr %9, align 8
  %47 = getelementptr inbounds double, ptr %45, i64 %46
  %48 = load double, ptr %47, align 8
  br label %54

49:                                               ; preds = %34
  %50 = load ptr, ptr %13, align 8
  %51 = load i64, ptr %9, align 8
  %52 = getelementptr inbounds double, ptr %50, i64 %51
  %53 = load double, ptr %52, align 8
  br label %54

54:                                               ; preds = %49, %44
  %55 = phi double [ %48, %44 ], [ %53, %49 ]
  %56 = load ptr, ptr %14, align 8
  %57 = load i64, ptr %9, align 8
  %58 = getelementptr inbounds double, ptr %56, i64 %57
  %59 = load double, ptr %58, align 8
  %60 = fcmp olt double %55, %59
  br i1 %60, label %61, label %83

61:                                               ; preds = %54
  %62 = load ptr, ptr %12, align 8
  %63 = load i64, ptr %9, align 8
  %64 = getelementptr inbounds double, ptr %62, i64 %63
  %65 = load double, ptr %64, align 8
  %66 = load ptr, ptr %13, align 8
  %67 = load i64, ptr %9, align 8
  %68 = getelementptr inbounds double, ptr %66, i64 %67
  %69 = load double, ptr %68, align 8
  %70 = fcmp ogt double %65, %69
  br i1 %70, label %71, label %76

71:                                               ; preds = %61
  %72 = load ptr, ptr %12, align 8
  %73 = load i64, ptr %9, align 8
  %74 = getelementptr inbounds double, ptr %72, i64 %73
  %75 = load double, ptr %74, align 8
  br label %81

76:                                               ; preds = %61
  %77 = load ptr, ptr %13, align 8
  %78 = load i64, ptr %9, align 8
  %79 = getelementptr inbounds double, ptr %77, i64 %78
  %80 = load double, ptr %79, align 8
  br label %81

81:                                               ; preds = %76, %71
  %82 = phi double [ %75, %71 ], [ %80, %76 ]
  br label %88

83:                                               ; preds = %54
  %84 = load ptr, ptr %14, align 8
  %85 = load i64, ptr %9, align 8
  %86 = getelementptr inbounds double, ptr %84, i64 %85
  %87 = load double, ptr %86, align 8
  br label %88

88:                                               ; preds = %83, %81
  %89 = phi double [ %82, %81 ], [ %87, %83 ]
  %90 = load ptr, ptr %11, align 8
  %91 = load i64, ptr %9, align 8
  %92 = getelementptr inbounds double, ptr %90, i64 %91
  store double %89, ptr %92, align 8
  br label %93

93:                                               ; preds = %88
  %94 = load i64, ptr %9, align 8
  %95 = add nsw i64 %94, 1
  store i64 %95, ptr %9, align 8
  br label %30, !llvm.loop !37

96:                                               ; preds = %30
  ret void
}