; Function Attrs: nofree norecurse nosync nounwind memory(readwrite, inaccessiblemem: none) uwtable
define void @OSQPVectorf_ew_bound_vec(ptr nocapture noundef readonly %0, ptr nocapture noundef readonly %1, ptr nocapture noundef readonly %2, ptr nocapture noundef readonly %3) local_unnamed_addr #7 {
  %5 = getelementptr inbounds i8, ptr %0, i64 8
  %6 = load i64, ptr %5, align 8
  %7 = load ptr, ptr %0, align 8
  %8 = load ptr, ptr %1, align 8
  %9 = load ptr, ptr %2, align 8
  %10 = load ptr, ptr %3, align 8
  %11 = icmp sgt i64 %6, 0
  br i1 %11, label %.lr.ph, label %._crit_edge

.lr.ph:                                           ; preds = %4, %.lr.ph
  %.035 = phi i64 [ %22, %.lr.ph ], [ 0, %4 ]
  %12 = getelementptr inbounds double, ptr %8, i64 %.035
  %13 = load double, ptr %12, align 8
  %14 = getelementptr inbounds double, ptr %9, i64 %.035
  %15 = load double, ptr %14, align 8
  %16 = fcmp ogt double %13, %15
  %. = select i1 %16, double %13, double %15
  %17 = getelementptr inbounds double, ptr %10, i64 %.035
  %18 = load double, ptr %17, align 8
  %19 = fcmp olt double %., %18
  %20 = select i1 %19, double %., double %18
  %21 = getelementptr inbounds double, ptr %7, i64 %.035
  store double %20, ptr %21, align 8
  %22 = add nuw nsw i64 %.035, 1
  %exitcond.not = icmp eq i64 %22, %6
  br i1 %exitcond.not, label %._crit_edge, label %.lr.ph, !llvm.loop !37

._crit_edge:                                      ; preds = %.lr.ph, %4
  ret void
}